target datalayout = "e-m:e-p270:32:32-p271:32:32-p272:64:64-i64:64-i128:128-f80:128-n8:16:32:64-S128"
target triple = "x86_64-pc-linux-gnu"

%"struct.faiss::Index" = type <{ ptr, i32, [4 x i8], i64, i8, i8, [2 x i8], i32, float, [4 x i8] }>
%"struct.faiss::IndexAdditiveQuantizerFastScan" = type { %"struct.faiss::IndexFastScan", ptr, i8, i32, i64 }
%"struct.faiss::IndexFastScan" = type { %"struct.faiss::Index.base", i32, i32, i32, i32, i64, i64, i64, i64, i64, i64, %"struct.faiss::AlignedTable", ptr }
%"struct.faiss::Index.base" = type <{ ptr, i32, [4 x i8], i64, i8, i8, [2 x i8], i32, float }>
%"struct.faiss::AlignedTable" = type { %"struct.faiss::AlignedTableTightAlloc", i64 }
%"struct.faiss::AlignedTableTightAlloc" = type { ptr, i64 }
%"struct.faiss::Quantizer" = type { ptr, i64, i64 }
%"class.std::vector" = type { %"struct.std::_Vector_base" }
%"struct.std::_Vector_base" = type { %"struct.std::_Vector_base<unsigned long, std::allocator<unsigned long>>::_Vector_impl" }
%"struct.std::_Vector_base<unsigned long, std::allocator<unsigned long>>::_Vector_impl" = type { %"struct.std::_Vector_base<unsigned long, std::allocator<unsigned long>>::_Vector_impl_data" }
%"struct.std::_Vector_base<unsigned long, std::allocator<unsigned long>>::_Vector_impl_data" = type { ptr, ptr, ptr }
%"struct.faiss::IndexFlat1D" = type { %"struct.faiss::IndexFlatL2", i8, %"class.std::vector.13" }
%"struct.faiss::IndexFlatL2" = type { %"struct.faiss::IndexFlat", %"class.std::vector.3" }
%"struct.faiss::IndexFlat" = type { %"struct.faiss::IndexFlatCodes" }
%"struct.faiss::IndexFlatCodes" = type { %"struct.faiss::Index.base", i64, %"class.std::vector.8" }
%"class.std::vector.8" = type { %"struct.std::_Vector_base.9" }
%"struct.std::_Vector_base.9" = type { %"struct.std::_Vector_base<unsigned char, std::allocator<unsigned char>>::_Vector_impl" }
%"struct.std::_Vector_base<unsigned char, std::allocator<unsigned char>>::_Vector_impl" = type { %"struct.std::_Vector_base<unsigned char, std::allocator<unsigned char>>::_Vector_impl_data" }
%"struct.std::_Vector_base<unsigned char, std::allocator<unsigned char>>::_Vector_impl_data" = type { ptr, ptr, ptr }
%"class.std::vector.13" = type { %"struct.std::_Vector_base.14" }
%"struct.std::_Vector_base.14" = type { %"struct.std::_Vector_base<long, std::allocator<long>>::_Vector_impl" }
%"struct.std::_Vector_base<long, std::allocator<long>>::_Vector_impl" = type { %"struct.std::_Vector_base<long, std::allocator<long>>::_Vector_impl_data" }
%"struct.std::_Vector_base<long, std::allocator<long>>::_Vector_impl_data" = type { ptr, ptr, ptr }
%"class.std::vector.3" = type { %"struct.std::_Vector_base.4" }
%"struct.std::_Vector_base.4" = type { %"struct.std::_Vector_base<float, std::allocator<float>>::_Vector_impl" }
%"struct.std::_Vector_base<float, std::allocator<float>>::_Vector_impl" = type { %"struct.std::_Vector_base<float, std::allocator<float>>::_Vector_impl_data" }
%"struct.std::_Vector_base<float, std::allocator<float>>::_Vector_impl_data" = type { ptr, ptr, ptr }
%"struct.faiss::IndexResidualQuantizerFastScan" = type { %"struct.faiss::IndexAdditiveQuantizerFastScan", %"struct.faiss::ResidualQuantizer" }
%"struct.faiss::ResidualQuantizer" = type { %"struct.faiss::AdditiveQuantizer.base", i32, i32, i32, i32, i32, %"struct.faiss::ProgressiveDimClusteringParameters", ptr }
%"struct.faiss::AdditiveQuantizer.base" = type <{ %"struct.faiss::Quantizer", i64, %"class.std::vector", %"class.std::vector.3", %"class.std::vector", i64, i64, i64, i8, i8, i8, [5 x i8], %"class.std::vector.3", %"struct.faiss::IndexFlat1D", %"class.std::vector.3", %"class.std::vector.3", i64, i32, float, float }>
%"struct.faiss::ProgressiveDimClusteringParameters" = type <{ %"struct.faiss::ClusteringParameters.base", [2 x i8], i32, i8, [7 x i8] }>
%"struct.faiss::ClusteringParameters.base" = type <{ i32, i32, i8, i8, i8, i8, i8, [3 x i8], i32, i32, i32, [4 x i8], i64, i8, i8 }>

; Function Attrs: mustprogress uwtable
define void @_ZN5faiss30IndexAdditiveQuantizerFastScanC2Ev(ptr noundef nonnull align 8 dereferenceable(160) %0) unnamed_addr #1 align 2 {
  %2 = alloca ptr, align 8
  store ptr %0, ptr %2, align 8, !tbaa !4
  %3 = load ptr, ptr %2, align 8
  call void @_ZN5faiss13IndexFastScanC2Ev(ptr noundef nonnull align 8 dereferenceable(136) %3)
  store ptr getelementptr inbounds inrange(-16, 200) ({ [27 x ptr] }, ptr @_ZTVN5faiss30IndexAdditiveQuantizerFastScanE, i32 0, i32 0, i32 2), ptr %3, align 8, !tbaa !57
  %4 = getelementptr inbounds nuw %"struct.faiss::IndexAdditiveQuantizerFastScan", ptr %3, i32 0, i32 2
  store i8 1, ptr %4, align 8, !tbaa !63
  %5 = getelementptr inbounds nuw %"struct.faiss::IndexAdditiveQuantizerFastScan", ptr %3, i32 0, i32 3
  store i32 1, ptr %5, align 4, !tbaa !64
  %6 = getelementptr inbounds nuw %"struct.faiss::IndexAdditiveQuantizerFastScan", ptr %3, i32 0, i32 4
  store i64 0, ptr %6, align 8, !tbaa !23
  %7 = getelementptr inbounds nuw %"struct.faiss::Index", ptr %3, i32 0, i32 5
  store i8 0, ptr %7, align 1, !tbaa !13
  %8 = getelementptr inbounds nuw %"struct.faiss::IndexAdditiveQuantizerFastScan", ptr %3, i32 0, i32 1
  store ptr null, ptr %8, align 8, !tbaa !31
  ret void
}

; Function Attrs: mustprogress uwtable
define void @_ZN5faiss30IndexResidualQuantizerFastScanC2EimmNS_10MetricTypeENS_17AdditiveQuantizer13Search_type_tEi(ptr noundef nonnull align 8 dereferenceable(600) %0, i32 noundef %1, i64 noundef %2, i64 noundef %3, i32 noundef %4, i32 noundef %5, i32 noundef %6) unnamed_addr #1 align 2 personality ptr @__gxx_personality_v0 {
  %8 = alloca ptr, align 8
  %9 = alloca i32, align 4
  %10 = alloca i64, align 8
  %11 = alloca i64, align 8
  %12 = alloca i32, align 4
  %13 = alloca i32, align 4
  %14 = alloca i32, align 4
  %15 = alloca ptr, align 8
  %16 = alloca i32, align 4
  store ptr %0, ptr %8, align 8, !tbaa !194
  store i32 %1, ptr %9, align 4, !tbaa !21
  store i64 %2, ptr %10, align 8, !tbaa !9
  store i64 %3, ptr %11, align 8, !tbaa !9
  store i32 %4, ptr %12, align 4, !tbaa !77
  store i32 %5, ptr %13, align 4, !tbaa !196
  store i32 %6, ptr %14, align 4, !tbaa !21
  %17 = load ptr, ptr %8, align 8
  call void @_ZN5faiss30IndexAdditiveQuantizerFastScanC2Ev(ptr noundef nonnull align 8 dereferenceable(160) %17)
  store ptr getelementptr inbounds inrange(-16, 200) ({ [27 x ptr] }, ptr @_ZTVN5faiss30IndexResidualQuantizerFastScanE, i32 0, i32 0, i32 2), ptr %17, align 8, !tbaa !57
  %18 = getelementptr inbounds nuw %"struct.faiss::IndexResidualQuantizerFastScan", ptr %17, i32 0, i32 1
  %19 = load i32, ptr %9, align 4, !tbaa !21
  %20 = sext i32 %19 to i64
  %21 = load i64, ptr %10, align 8, !tbaa !9
  %22 = load i64, ptr %11, align 8, !tbaa !9
  %23 = load i32, ptr %13, align 4, !tbaa !196
  invoke void @_ZN5faiss17ResidualQuantizerC1EmmmNS_17AdditiveQuantizer13Search_type_tE(ptr noundef nonnull align 8 dereferenceable(440) %18, i64 noundef %20, i64 noundef %21, i64 noundef %22, i32 noundef %23)
          to label %24 unwind label %29

24:                                               ; preds = %7
  %25 = getelementptr inbounds nuw %"struct.faiss::IndexResidualQuantizerFastScan", ptr %17, i32 0, i32 1
  %26 = load i32, ptr %12, align 4, !tbaa !77
  %27 = load i32, ptr %14, align 4, !tbaa !21
  invoke void @_ZN5faiss30IndexAdditiveQuantizerFastScan4initEPNS_17AdditiveQuantizerENS_10MetricTypeEi(ptr noundef nonnull align 8 dereferenceable(160) %17, ptr noundef %25, i32 noundef %26, i32 noundef %27)
          to label %28 unwind label %33

28:                                               ; preds = %24
  ret void

29:                                               ; preds = %7
  %30 = landingpad { ptr, i32 }
          cleanup
  %31 = extractvalue { ptr, i32 } %30, 0
  store ptr %31, ptr %15, align 8
  %32 = extractvalue { ptr, i32 } %30, 1
  store i32 %32, ptr %16, align 4
  br label %37

33:                                               ; preds = %24
  %34 = landingpad { ptr, i32 }
          cleanup
  %35 = extractvalue { ptr, i32 } %34, 0
  store ptr %35, ptr %15, align 8
  %36 = extractvalue { ptr, i32 } %34, 1
  store i32 %36, ptr %16, align 4
  call void @_ZN5faiss17AdditiveQuantizerD2Ev(ptr noundef nonnull align 8 dereferenceable(440) %18) #11
  br label %37

37:                                               ; preds = %33, %29
  call void @_ZN5faiss30IndexAdditiveQuantizerFastScanD2Ev(ptr noundef nonnull align 8 dereferenceable(160) %17) #11
  br label %38

38:                                               ; preds = %37
  %39 = load ptr, ptr %15, align 8
  %40 = load i32, ptr %16, align 4
  %41 = insertvalue { ptr, i32 } poison, ptr %39, 0
  %42 = insertvalue { ptr, i32 } %41, i32 %40, 1
  resume { ptr, i32 } %42
}