; Function Attrs: mustprogress uwtable
define void @_ZN5faiss30IndexResidualQuantizerFastScanC2EimmNS_10MetricTypeENS_17AdditiveQuantizer13Search_type_tEi(ptr noundef nonnull align 8 dereferenceable(600) %0, i32 noundef %1, i64 noundef %2, i64 noundef %3, i32 noundef %4, i32 noundef %5, i32 noundef %6) unnamed_addr #1 align 2 personality ptr @__gxx_personality_v0 {
  tail call void @_ZN5faiss13IndexFastScanC2Ev(ptr noundef nonnull align 8 dereferenceable(160) %0)
  %8 = getelementptr inbounds nuw i8, ptr %0, i64 144
  store i8 1, ptr %8, align 8, !tbaa !62
  %9 = getelementptr inbounds nuw i8, ptr %0, i64 148
  store i32 1, ptr %9, align 4, !tbaa !76
  %10 = getelementptr inbounds nuw i8, ptr %0, i64 152
  store i64 0, ptr %10, align 8, !tbaa !17
  %11 = getelementptr inbounds nuw i8, ptr %0, i64 25
  store i8 0, ptr %11, align 1, !tbaa !4
  %12 = getelementptr inbounds nuw i8, ptr %0, i64 136
  store ptr null, ptr %12, align 8, !tbaa !26
  store ptr getelementptr inbounds nuw inrange(-16, 200) (i8, ptr @_ZTVN5faiss30IndexResidualQuantizerFastScanE, i64 16), ptr %0, align 8, !tbaa !53
  %13 = getelementptr inbounds nuw i8, ptr %0, i64 160
  %14 = sext i32 %1 to i64
  invoke void @_ZN5faiss17ResidualQuantizerC1EmmmNS_17AdditiveQuantizer13Search_type_tE(ptr noundef nonnull align 8 dereferenceable(440) %13, i64 noundef %14, i64 noundef %2, i64 noundef %3, i32 noundef %5)
          to label %15 unwind label %17

15:                                               ; preds = %7
  invoke void @_ZN5faiss30IndexAdditiveQuantizerFastScan4initEPNS_17AdditiveQuantizerENS_10MetricTypeEi(ptr noundef nonnull align 8 dereferenceable(160) %0, ptr noundef nonnull %13, i32 noundef %4, i32 noundef %6)
          to label %16 unwind label %19

16:                                               ; preds = %15
  ret void

17:                                               ; preds = %7
  %18 = landingpad { ptr, i32 }
          cleanup
  br label %21

19:                                               ; preds = %15
  %20 = landingpad { ptr, i32 }
          cleanup
  tail call void @_ZN5faiss17AdditiveQuantizerD2Ev(ptr noundef nonnull align 8 dereferenceable(440) %13) #14
  br label %21

21:                                               ; preds = %19, %17
  %.pn = phi { ptr, i32 } [ %20, %19 ], [ %18, %17 ]
  tail call void @_ZN5faiss30IndexAdditiveQuantizerFastScanD2Ev(ptr noundef nonnull align 8 dereferenceable(160) %0) #14
  resume { ptr, i32 } %.pn
}